target datalayout = "e-m:e-p270:32:32-p271:32:32-p272:64:64-i64:64-i128:128-f80:128-n8:16:32:64-S128"
target triple = "x86_64-pc-linux-gnu"

%class.Draw = type { i8, ptr, ptr, ptr, ptr, ptr, ptr, ptr, ptr, %struct.b2DebugDraw, ptr, ptr, ptr, ptr }
%struct.b2DebugDraw = type { ptr, ptr, ptr, ptr, ptr, ptr, ptr, ptr, ptr, %struct.b2AABB, i8, i8, i8, i8, i8, i8, i8, i8, i8, i8, i8, i8, ptr }
%struct.b2AABB = type { %struct.b2Vec2, %struct.b2Vec2 }
%struct.b2Vec2 = type { float, float }

; Function Attrs: mustprogress nounwind uwtable
define dso_local void @_ZN4DrawC2Ev(ptr noundef nonnull align 8 dereferenceable(216) %0) unnamed_addr #3 align 2 {
  %2 = alloca ptr, align 8
  %3 = alloca %struct.b2DebugDraw, align 8
  store ptr %0, ptr %2, align 8, !tbaa !30
  %4 = load ptr, ptr %2, align 8
  %5 = getelementptr inbounds nuw %class.Draw, ptr %4, i32 0, i32 0
  store i8 1, ptr %5, align 8, !tbaa !56
  %6 = getelementptr inbounds nuw %class.Draw, ptr %4, i32 0, i32 2
  store ptr null, ptr %6, align 8, !tbaa !53
  %7 = getelementptr inbounds nuw %class.Draw, ptr %4, i32 0, i32 3
  store ptr null, ptr %7, align 8, !tbaa !32
  %8 = getelementptr inbounds nuw %class.Draw, ptr %4, i32 0, i32 4
  store ptr null, ptr %8, align 8, !tbaa !57
  %9 = getelementptr inbounds nuw %class.Draw, ptr %4, i32 0, i32 5
  store ptr null, ptr %9, align 8, !tbaa !50
  %10 = getelementptr inbounds nuw %class.Draw, ptr %4, i32 0, i32 6
  store ptr null, ptr %10, align 8, !tbaa !51
  %11 = getelementptr inbounds nuw %class.Draw, ptr %4, i32 0, i32 7
  store ptr null, ptr %11, align 8, !tbaa !52
  %12 = getelementptr inbounds nuw %class.Draw, ptr %4, i32 0, i32 8
  store ptr null, ptr %12, align 8, !tbaa !49
  call void @llvm.lifetime.start.p0(i64 112, ptr %3) #1
  call void @llvm.memset.p0.i64(ptr align 8 %3, i8 0, i64 112, i1 false)
  %13 = getelementptr inbounds nuw %class.Draw, ptr %4, i32 0, i32 9
  call void @llvm.memcpy.p0.p0.i64(ptr align 8 %13, ptr align 8 %3, i64 112, i1 false), !tbaa.struct !58
  call void @llvm.lifetime.end.p0(i64 112, ptr %3) #1
  %14 = getelementptr inbounds nuw %class.Draw, ptr %4, i32 0, i32 10
  store ptr null, ptr %14, align 8, !tbaa !60
  %15 = getelementptr inbounds nuw %class.Draw, ptr %4, i32 0, i32 12
  store ptr null, ptr %15, align 8, !tbaa !61
  %16 = getelementptr inbounds nuw %class.Draw, ptr %4, i32 0, i32 13
  store ptr null, ptr %16, align 8, !tbaa !62
  %17 = getelementptr inbounds nuw %class.Draw, ptr %4, i32 0, i32 11
  store ptr null, ptr %17, align 8, !tbaa !63
  %18 = getelementptr inbounds nuw %class.Draw, ptr %4, i32 0, i32 1
  store ptr null, ptr %18, align 8, !tbaa !64
  ret void
}